; Function Attrs: mustprogress uwtable
define void @_ZN6google8protobuf8compiler3cpp13FileGenerator16GeneratePBHeaderEPNS0_2io7PrinterESt17basic_string_viewIcSt11char_traitsIcEE(ptr noundef nonnull align 8 dereferenceable(752) %this, ptr noundef %p, i64 %info_path.coerce0, ptr %info_path.coerce1) local_unnamed_addr #3 align 2 personality ptr @__gxx_personality_v0 {
entry:
  %info_path = alloca %"class.std::basic_string_view", align 8
  %p.addr = alloca ptr, align 8
  %agg.tmp = alloca %"class.std::function", align 8
  store i64 %info_path.coerce0, ptr %info_path, align 8
  %0 = getelementptr inbounds i8, ptr %info_path, i64 8
  store ptr %info_path.coerce1, ptr %0, align 8
  store ptr %p, ptr %p.addr, align 8
  %_M_manager.i.i = getelementptr inbounds i8, ptr %agg.tmp, i64 16
  %_M_invoker.i = getelementptr inbounds i8, ptr %agg.tmp, i64 24
  %1 = getelementptr inbounds i8, ptr %agg.tmp, i64 8
  store i64 0, ptr %1, align 8
  %call.i.i2.i = tail call noalias noundef nonnull dereferenceable(24) ptr @_Znwm(i64 noundef 24) #25
  store ptr %p.addr, ptr %call.i.i2.i, align 16
  %ref.tmp.sroa.2.0.call.i.i2.i.sroa_idx = getelementptr inbounds i8, ptr %call.i.i2.i, i64 8
  store ptr %this, ptr %ref.tmp.sroa.2.0.call.i.i2.i.sroa_idx, align 8
  %ref.tmp.sroa.3.0.call.i.i2.i.sroa_idx = getelementptr inbounds i8, ptr %call.i.i2.i, i64 16
  store ptr %info_path, ptr %ref.tmp.sroa.3.0.call.i.i2.i.sroa_idx, align 16
  store ptr %call.i.i2.i, ptr %agg.tmp, align 8
  store ptr @"_ZNSt17_Function_handlerIFvvEZN6google8protobuf8compiler3cpp13FileGenerator16GeneratePBHeaderEPNS2_2io7PrinterESt17basic_string_viewIcSt11char_traitsIcEEE3$_0E9_M_invokeERKSt9_Any_data", ptr %_M_invoker.i, align 8
  store ptr @"_ZNSt17_Function_handlerIFvvEZN6google8protobuf8compiler3cpp13FileGenerator16GeneratePBHeaderEPNS2_2io7PrinterESt17basic_string_viewIcSt11char_traitsIcEEE3$_0E10_M_managerERSt9_Any_dataRKSF_St18_Manager_operation", ptr %_M_manager.i.i, align 8
  invoke void @_ZN6google8protobuf8compiler3cpp13FileGenerator12GenerateFileEPNS0_2io7PrinterENS2_17GeneratedFileTypeESt8functionIFvvEE(ptr noundef nonnull align 8 dereferenceable(752) %this, ptr noundef %p, i32 noundef 0, ptr noundef nonnull %agg.tmp)
          to label %invoke.cont unwind label %lpad

invoke.cont:                                      ; preds = %entry
  %2 = load ptr, ptr %_M_manager.i.i, align 8
  %tobool.not.i.i = icmp eq ptr %2, null
  br i1 %tobool.not.i.i, label %_ZNSt8functionIFvvEED2Ev.exit, label %if.then.i.i

if.then.i.i:                                      ; preds = %invoke.cont
  %call.i.i = invoke noundef zeroext i1 %2(ptr noundef nonnull align 8 dereferenceable(16) %agg.tmp, ptr noundef nonnull align 8 dereferenceable(16) %agg.tmp, i32 noundef 3)
          to label %_ZNSt8functionIFvvEED2Ev.exit unwind label %terminate.lpad.i.i

terminate.lpad.i.i:                               ; preds = %if.then.i.i
  %3 = landingpad { ptr, i32 }
          catch ptr null
  %4 = extractvalue { ptr, i32 } %3, 0
  call void @__clang_call_terminate(ptr %4) #24
  unreachable

_ZNSt8functionIFvvEED2Ev.exit:                    ; preds = %invoke.cont, %if.then.i.i
  ret void

lpad:                                             ; preds = %entry
  %5 = landingpad { ptr, i32 }
          cleanup
  %6 = load ptr, ptr %_M_manager.i.i, align 8
  %tobool.not.i.i3 = icmp eq ptr %6, null
  br i1 %tobool.not.i.i3, label %_ZNSt8functionIFvvEED2Ev.exit7, label %if.then.i.i4

if.then.i.i4:                                     ; preds = %lpad
  %call.i.i5 = invoke noundef zeroext i1 %6(ptr noundef nonnull align 8 dereferenceable(16) %agg.tmp, ptr noundef nonnull align 8 dereferenceable(16) %agg.tmp, i32 noundef 3)
          to label %_ZNSt8functionIFvvEED2Ev.exit7 unwind label %terminate.lpad.i.i6

terminate.lpad.i.i6:                              ; preds = %if.then.i.i4
  %7 = landingpad { ptr, i32 }
          catch ptr null
  %8 = extractvalue { ptr, i32 } %7, 0
  call void @__clang_call_terminate(ptr %8) #24
  unreachable

_ZNSt8functionIFvvEED2Ev.exit7:                   ; preds = %lpad, %if.then.i.i4
  resume { ptr, i32 } %5
}